; Function Attrs: nounwind uwtable
define hidden range(i32 0, 206) i32 @commonRef_pin(i64 noundef %0) local_unnamed_addr #0 {
  %2 = icmp eq i64 %0, 0
  br i1 %2, label %50, label %3

3:                                                ; preds = %1
  %4 = load ptr, ptr @gdata, align 8
  %5 = getelementptr inbounds i8, ptr %4, i64 536
  %6 = load ptr, ptr %5, align 8
  tail call void @debugMonitorEnter(ptr noundef %6) #5
  %7 = tail call ptr @getEnv() #5
  %8 = trunc i64 %0 to i32
  %9 = load ptr, ptr @gdata, align 8
  %10 = getelementptr inbounds i8, ptr %9, i64 568
  %11 = load i32, ptr %10, align 8
  %12 = add nsw i32 %11, -1
  %13 = and i32 %12, %8
  %14 = getelementptr inbounds i8, ptr %9, i64 560
  %15 = load ptr, ptr %14, align 8
  %16 = sext i32 %13 to i64
  %17 = getelementptr inbounds ptr, ptr %15, i64 %16
  %.01.i = load ptr, ptr %17, align 8
  %.not2.i = icmp eq ptr %.01.i, null
  br i1 %.not2.i, label %deleteNodeByID.exit, label %.lr.ph.i

.lr.ph.i:                                         ; preds = %3, %20
  %.03.i = phi ptr [ %.0.i, %20 ], [ %.01.i, %3 ]
  %18 = load i64, ptr %.03.i, align 8
  %19 = icmp eq i64 %18, %0
  br i1 %19, label %findNodeByID.exit, label %20

20:                                               ; preds = %.lr.ph.i
  %21 = getelementptr inbounds i8, ptr %.03.i, i64 16
  %.0.i = load ptr, ptr %21, align 8
  %.not.i = icmp eq ptr %.0.i, null
  br i1 %.not.i, label %deleteNodeByID.exit, label %.lr.ph.i, !llvm.loop !11

findNodeByID.exit:                                ; preds = %.lr.ph.i
  %22 = tail call fastcc ptr @strengthenNode(ptr noundef %7, ptr noundef nonnull %.03.i, i8 noundef zeroext 0)
  %23 = icmp eq ptr %22, null
  %.pre27 = load ptr, ptr @gdata, align 8
  br i1 %23, label %24, label %deleteNodeByID.exit

24:                                               ; preds = %findNodeByID.exit
  %25 = getelementptr inbounds i8, ptr %.pre27, i64 568
  %26 = load i32, ptr %25, align 8
  %27 = add nsw i32 %26, -1
  %28 = and i32 %27, %8
  %29 = getelementptr inbounds i8, ptr %.pre27, i64 560
  %30 = load ptr, ptr %29, align 8
  %31 = sext i32 %28 to i64
  %32 = getelementptr inbounds ptr, ptr %30, i64 %31
  %.01925.i = load ptr, ptr %32, align 8
  %.not26.i = icmp eq ptr %.01925.i, null
  br i1 %.not26.i, label %deleteNodeByID.exit, label %.lr.ph.i14.preheader

.lr.ph.i14.preheader:                             ; preds = %24
  %33 = load i64, ptr %.01925.i, align 8
  %34 = icmp eq i64 %33, %0
  br i1 %34, label %37, label %.lr.ph

.lr.ph.i14:                                       ; preds = %.lr.ph
  %35 = load i64, ptr %.019.i, align 8
  %36 = icmp eq i64 %35, %0
  br i1 %36, label %41, label %.lr.ph, !llvm.loop !12

37:                                               ; preds = %.lr.ph.i14.preheader
  %38 = getelementptr inbounds i8, ptr %.01925.i, i64 24
  store i32 0, ptr %38, align 8
  %39 = load ptr, ptr %29, align 8
  %40 = getelementptr inbounds ptr, ptr %39, i64 %31
  br label %44

41:                                               ; preds = %.lr.ph.i14
  %42 = getelementptr inbounds i8, ptr %.019.i, i64 24
  store i32 0, ptr %42, align 8
  %43 = getelementptr inbounds i8, ptr %.01928.i21, i64 16
  br label %44

44:                                               ; preds = %41, %37
  %.01928.i.lcssa30 = phi ptr [ %.019.i, %41 ], [ %.01925.i, %37 ]
  %.sink.i = phi ptr [ %43, %41 ], [ %40, %37 ]
  %.in = getelementptr inbounds i8, ptr %.01928.i.lcssa30, i64 16
  %45 = load ptr, ptr %.in, align 8
  store ptr %45, ptr %.sink.i, align 8
  tail call fastcc void @deleteNode(ptr noundef %7, ptr noundef nonnull %.01928.i.lcssa30)
  %.pre = load ptr, ptr @gdata, align 8
  br label %deleteNodeByID.exit

.lr.ph:                                           ; preds = %.lr.ph.i14.preheader, %.lr.ph.i14
  %.01928.i21 = phi ptr [ %.019.i, %.lr.ph.i14 ], [ %.01925.i, %.lr.ph.i14.preheader ]
  %46 = getelementptr inbounds i8, ptr %.01928.i21, i64 16
  %.019.i = load ptr, ptr %46, align 8
  %.not.i15 = icmp eq ptr %.019.i, null
  br i1 %.not.i15, label %deleteNodeByID.exit, label %.lr.ph.i14, !llvm.loop !12

deleteNodeByID.exit:                              ; preds = %20, %.lr.ph, %3, %44, %24, %findNodeByID.exit
  %47 = phi ptr [ %.pre27, %findNodeByID.exit ], [ %.pre27, %24 ], [ %.pre, %44 ], [ %9, %3 ], [ %.pre27, %.lr.ph ], [ %9, %20 ]
  %.011 = phi i32 [ 0, %findNodeByID.exit ], [ 205, %24 ], [ 205, %44 ], [ 205, %3 ], [ 205, %.lr.ph ], [ 205, %20 ]
  %48 = getelementptr inbounds i8, ptr %47, i64 536
  %49 = load ptr, ptr %48, align 8
  tail call void @debugMonitorExit(ptr noundef %49) #5
  br label %50

50:                                               ; preds = %1, %deleteNodeByID.exit
  %.0 = phi i32 [ %.011, %deleteNodeByID.exit ], [ 0, %1 ]
  ret i32 %.0
}